; Function Attrs: nounwind uwtable
define range(i32 -21, 1) i32 @mriStep_ComputeState(ptr noundef %0, ptr noundef %1, ptr noundef %2) #0 {
  %4 = getelementptr inbounds nuw i8, ptr %0, i64 136
  %5 = load ptr, ptr %4, align 8, !tbaa !71
  %6 = icmp eq ptr %5, null
  br i1 %6, label %mriStep_AccessStepMem.exit, label %7

mriStep_AccessStepMem.exit:                       ; preds = %3
  tail call void (ptr, i32, i32, ptr, ptr, ptr, ...) @arkProcessError(ptr noundef nonnull %0, i32 noundef -21, i32 noundef 3097, ptr noundef nonnull @__func__.mriStep_ComputeState, ptr noundef nonnull @.str, ptr noundef nonnull @.str.75) #14
  br label %10

7:                                                ; preds = %3
  %8 = getelementptr inbounds nuw i8, ptr %5, i64 144
  %9 = load ptr, ptr %8, align 8, !tbaa !195
  tail call void @N_VLinearSum(double noundef 1.000000e+00, ptr noundef %9, double noundef 1.000000e+00, ptr noundef %1, ptr noundef %2) #14
  br label %10

10:                                               ; preds = %mriStep_AccessStepMem.exit, %7
  %.0 = phi i32 [ 0, %7 ], [ -21, %mriStep_AccessStepMem.exit ]
  ret i32 %.0
}